; Function Attrs: mustprogress nofree norecurse nosync nounwind willreturn memory(read, inaccessiblemem: none) uwtable
define noundef double @_ZNK8QuantLib6detail14GsrProcessCore5time2Em(ptr nocapture noundef nonnull readonly align 8 dereferenceable(360) %this, i64 noundef %index) local_unnamed_addr #7 align 2 {
entry:
  %cmp = icmp eq i64 %index, 0
  br i1 %cmp, label %return, label %if.end

if.end:                                           ; preds = %entry
  %0 = load ptr, ptr %this, align 8, !tbaa !47
  %n_.i = getelementptr inbounds nuw i8, ptr %0, i64 8
  %1 = load i64, ptr %n_.i, align 8, !tbaa !36
  %cmp2 = icmp ugt i64 %index, %1
  br i1 %cmp2, label %if.then3, label %if.end4

if.then3:                                         ; preds = %if.end
  %T_ = getelementptr inbounds nuw i8, ptr %this, i64 312
  br label %return.sink.split

if.end4:                                          ; preds = %if.end
  %2 = load ptr, ptr %0, align 8, !tbaa !3
  %3 = getelementptr double, ptr %2, i64 %index
  %arrayidx.i = getelementptr i8, ptr %3, i64 -8
  br label %return.sink.split

return.sink.split:                                ; preds = %if.then3, %if.end4
  %arrayidx.i.sink = phi ptr [ %arrayidx.i, %if.end4 ], [ %T_, %if.then3 ]
  %4 = load double, ptr %arrayidx.i.sink, align 8, !tbaa !53
  br label %return

return:                                           ; preds = %return.sink.split, %entry
  %retval.0 = phi double [ 0.000000e+00, %entry ], [ %4, %return.sink.split ]
  ret double %retval.0
}